target datalayout = "e-m:e-p270:32:32-p271:32:32-p272:64:64-i64:64-i128:128-f80:128-n8:16:32:64-S128"
target triple = "x86_64-pc-linux-gnu"

%"class.std::__cxx11::basic_string" = type { %"struct.std::__cxx11::basic_string<char>::_Alloc_hider", i64, %union.anon }
%"struct.std::__cxx11::basic_string<char>::_Alloc_hider" = type { ptr }
%union.anon = type { i64, [8 x i8] }
%"class.std::optional.2" = type { %"struct.std::_Optional_base.3" }
%"struct.std::_Optional_base.3" = type { %"struct.std::_Optional_payload.5" }
%"struct.std::_Optional_payload.5" = type { %"struct.std::_Optional_payload.base.9", [7 x i8] }
%"struct.std::_Optional_payload.base.9" = type { %"struct.std::_Optional_payload_base.base.8" }
%"struct.std::_Optional_payload_base.base.8" = type <{ %"union.std::_Optional_payload_base<std::__cxx11::basic_string<char>>::_Storage", i8 }>
%"union.std::_Optional_payload_base<std::__cxx11::basic_string<char>>::_Storage" = type { %"class.std::__cxx11::basic_string" }
%"struct.Luau::Type" = type { %"class.Luau::Variant.113", i8, [7 x i8], %"class.std::optional.2", ptr }
%"class.Luau::Variant.113" = type { i32, [4 x i8], [336 x i8] }
%"struct.Luau::MetatableType" = type { ptr, ptr, %"class.std::optional.2" }

; Function Attrs: mustprogress nounwind uwtable
define linkonce_odr dso_local noundef ptr @_ZNK4Luau7VariantIJNS_9Unifiable5BoundIPKNS_4TypeEEENS1_5ErrorIS5_EENS_8FreeTypeENS_11GenericTypeENS_13PrimitiveTypeENS_13SingletonTypeENS_11BlockedTypeENS_20PendingExpansionTypeENS_12FunctionTypeENS_9TableTypeENS_13MetatableTypeENS_9ClassTypeENS_7AnyTypeENS_9UnionTypeENS_16IntersectionTypeENS_8LazyTypeENS_11UnknownTypeENS_9NeverTypeENS_12NegationTypeENS_12NoRefineTypeENS_24TypeFunctionInstanceTypeEEE6get_ifISH_EEPKT_v(ptr noundef nonnull align 8 dereferenceable(344) %0) #2 comdat align 2 {
  %2 = alloca ptr, align 8
  %3 = alloca i32, align 4
  store ptr %0, ptr %2, align 8, !tbaa !337
  %4 = load ptr, ptr %2, align 8
  call void @llvm.lifetime.start.p0(i64 4, ptr %3) #20
  store i32 10, ptr %3, align 4, !tbaa !4
  %5 = getelementptr inbounds nuw %"class.Luau::Variant.113", ptr %4, i32 0, i32 0
  %6 = load i32, ptr %5, align 8, !tbaa !339
  %7 = icmp eq i32 10, %6
  br i1 %7, label %8, label %10

8:                                                ; preds = %1
  %9 = getelementptr inbounds nuw %"class.Luau::Variant.113", ptr %4, i32 0, i32 2
  br label %11

10:                                               ; preds = %1
  br label %11

11:                                               ; preds = %10, %8
  %12 = phi ptr [ %9, %8 ], [ null, %10 ]
  call void @llvm.lifetime.end.p0(i64 4, ptr %3) #20
  ret ptr %12
}

; Function Attrs: mustprogress nounwind uwtable
define linkonce_odr dso_local noundef ptr @_ZNK4Luau7VariantIJNS_9Unifiable5BoundIPKNS_4TypeEEENS1_5ErrorIS5_EENS_8FreeTypeENS_11GenericTypeENS_13PrimitiveTypeENS_13SingletonTypeENS_11BlockedTypeENS_20PendingExpansionTypeENS_12FunctionTypeENS_9TableTypeENS_13MetatableTypeENS_9ClassTypeENS_7AnyTypeENS_9UnionTypeENS_16IntersectionTypeENS_8LazyTypeENS_11UnknownTypeENS_9NeverTypeENS_12NegationTypeENS_12NoRefineTypeENS_24TypeFunctionInstanceTypeEEE6get_ifISG_EEPKT_v(ptr noundef nonnull align 8 dereferenceable(344) %0) #2 comdat align 2 {
  %2 = alloca ptr, align 8
  %3 = alloca i32, align 4
  store ptr %0, ptr %2, align 8, !tbaa !337
  %4 = load ptr, ptr %2, align 8
  call void @llvm.lifetime.start.p0(i64 4, ptr %3) #20
  store i32 9, ptr %3, align 4, !tbaa !4
  %5 = getelementptr inbounds nuw %"class.Luau::Variant.113", ptr %4, i32 0, i32 0
  %6 = load i32, ptr %5, align 8, !tbaa !339
  %7 = icmp eq i32 9, %6
  br i1 %7, label %8, label %10

8:                                                ; preds = %1
  %9 = getelementptr inbounds nuw %"class.Luau::Variant.113", ptr %4, i32 0, i32 2
  br label %11

10:                                               ; preds = %1
  br label %11

11:                                               ; preds = %10, %8
  %12 = phi ptr [ %9, %8 ], [ null, %10 ]
  call void @llvm.lifetime.end.p0(i64 4, ptr %3) #20
  ret ptr %12
}

; Function Attrs: mustprogress uwtable
define linkonce_odr dso_local noundef ptr @_ZN4Luau6get_ifINS_13MetatableTypeEJNS_9Unifiable5BoundIPKNS_4TypeEEENS2_5ErrorIS6_EENS_8FreeTypeENS_11GenericTypeENS_13PrimitiveTypeENS_13SingletonTypeENS_11BlockedTypeENS_20PendingExpansionTypeENS_12FunctionTypeENS_9TableTypeES1_NS_9ClassTypeENS_7AnyTypeENS_9UnionTypeENS_16IntersectionTypeENS_8LazyTypeENS_11UnknownTypeENS_9NeverTypeENS_12NegationTypeENS_12NoRefineTypeENS_24TypeFunctionInstanceTypeEEEEPKT_PKNS_7VariantIJDpT0_EEE(ptr noundef %0) #3 comdat {
  %2 = alloca ptr, align 8
  store ptr %0, ptr %2, align 8, !tbaa !337
  %3 = load ptr, ptr %2, align 8, !tbaa !337
  %4 = icmp ne ptr %3, null
  br i1 %4, label %5, label %8

5:                                                ; preds = %1
  %6 = load ptr, ptr %2, align 8, !tbaa !337
  %7 = call noundef ptr @_ZNK4Luau7VariantIJNS_9Unifiable5BoundIPKNS_4TypeEEENS1_5ErrorIS5_EENS_8FreeTypeENS_11GenericTypeENS_13PrimitiveTypeENS_13SingletonTypeENS_11BlockedTypeENS_20PendingExpansionTypeENS_12FunctionTypeENS_9TableTypeENS_13MetatableTypeENS_9ClassTypeENS_7AnyTypeENS_9UnionTypeENS_16IntersectionTypeENS_8LazyTypeENS_11UnknownTypeENS_9NeverTypeENS_12NegationTypeENS_12NoRefineTypeENS_24TypeFunctionInstanceTypeEEE6get_ifISH_EEPKT_v(ptr noundef nonnull align 8 dereferenceable(344) %6)
  br label %9

8:                                                ; preds = %1
  br label %9

9:                                                ; preds = %8, %5
  %10 = phi ptr [ %7, %5 ], [ null, %8 ]
  ret ptr %10
}

; Function Attrs: mustprogress uwtable
define linkonce_odr dso_local noundef ptr @_ZN4Luau6get_ifINS_9TableTypeEJNS_9Unifiable5BoundIPKNS_4TypeEEENS2_5ErrorIS6_EENS_8FreeTypeENS_11GenericTypeENS_13PrimitiveTypeENS_13SingletonTypeENS_11BlockedTypeENS_20PendingExpansionTypeENS_12FunctionTypeES1_NS_13MetatableTypeENS_9ClassTypeENS_7AnyTypeENS_9UnionTypeENS_16IntersectionTypeENS_8LazyTypeENS_11UnknownTypeENS_9NeverTypeENS_12NegationTypeENS_12NoRefineTypeENS_24TypeFunctionInstanceTypeEEEEPKT_PKNS_7VariantIJDpT0_EEE(ptr noundef %0) #3 comdat {
  %2 = alloca ptr, align 8
  store ptr %0, ptr %2, align 8, !tbaa !337
  %3 = load ptr, ptr %2, align 8, !tbaa !337
  %4 = icmp ne ptr %3, null
  br i1 %4, label %5, label %8

5:                                                ; preds = %1
  %6 = load ptr, ptr %2, align 8, !tbaa !337
  %7 = call noundef ptr @_ZNK4Luau7VariantIJNS_9Unifiable5BoundIPKNS_4TypeEEENS1_5ErrorIS5_EENS_8FreeTypeENS_11GenericTypeENS_13PrimitiveTypeENS_13SingletonTypeENS_11BlockedTypeENS_20PendingExpansionTypeENS_12FunctionTypeENS_9TableTypeENS_13MetatableTypeENS_9ClassTypeENS_7AnyTypeENS_9UnionTypeENS_16IntersectionTypeENS_8LazyTypeENS_11UnknownTypeENS_9NeverTypeENS_12NegationTypeENS_12NoRefineTypeENS_24TypeFunctionInstanceTypeEEE6get_ifISG_EEPKT_v(ptr noundef nonnull align 8 dereferenceable(344) %6)
  br label %9

8:                                                ; preds = %1
  br label %9

9:                                                ; preds = %8, %5
  %10 = phi ptr [ %7, %5 ], [ null, %8 ]
  ret ptr %10
}

; Function Attrs: mustprogress uwtable
define linkonce_odr dso_local noundef ptr @_ZN4Luau3getINS_13MetatableTypeEEEPKT_PKNS_4TypeE(ptr noundef %0) #3 comdat {
  %2 = alloca ptr, align 8
  store ptr %0, ptr %2, align 8, !tbaa !29
  %3 = load ptr, ptr %2, align 8, !tbaa !29
  %4 = getelementptr inbounds nuw %"struct.Luau::Type", ptr %3, i32 0, i32 0
  %5 = call noundef ptr @_ZN4Luau6get_ifINS_13MetatableTypeEJNS_9Unifiable5BoundIPKNS_4TypeEEENS2_5ErrorIS6_EENS_8FreeTypeENS_11GenericTypeENS_13PrimitiveTypeENS_13SingletonTypeENS_11BlockedTypeENS_20PendingExpansionTypeENS_12FunctionTypeENS_9TableTypeES1_NS_9ClassTypeENS_7AnyTypeENS_9UnionTypeENS_16IntersectionTypeENS_8LazyTypeENS_11UnknownTypeENS_9NeverTypeENS_12NegationTypeENS_12NoRefineTypeENS_24TypeFunctionInstanceTypeEEEEPKT_PKNS_7VariantIJDpT0_EEE(ptr noundef %4)
  ret ptr %5
}

; Function Attrs: mustprogress uwtable
define linkonce_odr dso_local noundef ptr @_ZN4Luau3getINS_9TableTypeEEEPKT_PKNS_4TypeE(ptr noundef %0) #3 comdat {
  %2 = alloca ptr, align 8
  store ptr %0, ptr %2, align 8, !tbaa !29
  %3 = load ptr, ptr %2, align 8, !tbaa !29
  %4 = getelementptr inbounds nuw %"struct.Luau::Type", ptr %3, i32 0, i32 0
  %5 = call noundef ptr @_ZN4Luau6get_ifINS_9TableTypeEJNS_9Unifiable5BoundIPKNS_4TypeEEENS2_5ErrorIS6_EENS_8FreeTypeENS_11GenericTypeENS_13PrimitiveTypeENS_13SingletonTypeENS_11BlockedTypeENS_20PendingExpansionTypeENS_12FunctionTypeES1_NS_13MetatableTypeENS_9ClassTypeENS_7AnyTypeENS_9UnionTypeENS_16IntersectionTypeENS_8LazyTypeENS_11UnknownTypeENS_9NeverTypeENS_12NegationTypeENS_12NoRefineTypeENS_24TypeFunctionInstanceTypeEEEEPKT_PKNS_7VariantIJDpT0_EEE(ptr noundef %4)
  ret ptr %5
}

; Function Attrs: mustprogress uwtable
define dso_local noundef ptr @_ZN4Luau6followEPKNS_4TypeE(ptr noundef %0) #3 {
  %2 = alloca ptr, align 8
  store ptr %0, ptr %2, align 8, !tbaa !29
  %3 = load ptr, ptr %2, align 8, !tbaa !29
  %4 = call noundef ptr @_ZN4Luau6followEPKNS_4TypeENS_12FollowOptionE(ptr noundef %3, i32 noundef 0)
  ret ptr %4
}

; Function Attrs: mustprogress uwtable
define dso_local noundef ptr @_ZN4Luau12getTableTypeEPKNS_4TypeE(ptr noundef %0) #3 {
  %2 = alloca ptr, align 8
  %3 = alloca ptr, align 8
  %4 = alloca ptr, align 8
  %5 = alloca i32, align 4
  %6 = alloca ptr, align 8
  store ptr %0, ptr %3, align 8, !tbaa !29
  %7 = load ptr, ptr %3, align 8, !tbaa !29
  %8 = call noundef ptr @_ZN4Luau6followEPKNS_4TypeE(ptr noundef %7)
  store ptr %8, ptr %3, align 8, !tbaa !29
  call void @llvm.lifetime.start.p0(i64 8, ptr %4) #20
  %9 = load ptr, ptr %3, align 8, !tbaa !29
  %10 = call noundef ptr @_ZN4Luau3getINS_9TableTypeEEEPKT_PKNS_4TypeE(ptr noundef %9)
  store ptr %10, ptr %4, align 8, !tbaa !42
  %11 = load ptr, ptr %4, align 8, !tbaa !42
  %12 = icmp ne ptr %11, null
  br i1 %12, label %13, label %15

13:                                               ; preds = %1
  %14 = load ptr, ptr %4, align 8, !tbaa !42
  store ptr %14, ptr %2, align 8
  store i32 1, ptr %5, align 4
  br label %28

15:                                               ; preds = %1
  call void @llvm.lifetime.start.p0(i64 8, ptr %6) #20
  %16 = load ptr, ptr %3, align 8, !tbaa !29
  %17 = call noundef ptr @_ZN4Luau3getINS_13MetatableTypeEEEPKT_PKNS_4TypeE(ptr noundef %16)
  store ptr %17, ptr %6, align 8, !tbaa !114
  %18 = load ptr, ptr %6, align 8, !tbaa !114
  %19 = icmp ne ptr %18, null
  br i1 %19, label %20, label %26

20:                                               ; preds = %15
  %21 = load ptr, ptr %6, align 8, !tbaa !114
  %22 = getelementptr inbounds nuw %"struct.Luau::MetatableType", ptr %21, i32 0, i32 0
  %23 = load ptr, ptr %22, align 8, !tbaa !116
  %24 = call noundef ptr @_ZN4Luau6followEPKNS_4TypeE(ptr noundef %23)
  %25 = call noundef ptr @_ZN4Luau3getINS_9TableTypeEEEPKT_PKNS_4TypeE(ptr noundef %24)
  store ptr %25, ptr %2, align 8
  store i32 1, ptr %5, align 4
  br label %27

26:                                               ; preds = %15
  store ptr null, ptr %2, align 8
  store i32 1, ptr %5, align 4
  br label %27

27:                                               ; preds = %26, %20
  call void @llvm.lifetime.end.p0(i64 8, ptr %6) #20
  br label %28

28:                                               ; preds = %27, %13
  call void @llvm.lifetime.end.p0(i64 8, ptr %4) #20
  %29 = load ptr, ptr %2, align 8
  ret ptr %29
}